; Function Attrs: nounwind uwtable
define dso_local ptr @decl_new_ct(i32 noundef %0, i64 %1) local_unnamed_addr #0 {
  %3 = tail call ptr @vmem_alloc(ptr noundef nonnull @decl_arena, i64 noundef 136) #9
  %4 = getelementptr inbounds i8, ptr %3, i64 24
  %5 = load i64, ptr %4, align 8
  %6 = and i32 %0, 127
  %7 = zext nneg i32 %6 to i64
  %8 = and i64 %5, -128
  %9 = or disjoint i64 %8, %7
  store i64 %9, ptr %4, align 8
  %10 = getelementptr inbounds i8, ptr %3, i64 16
  store i64 %1, ptr %10, align 8
  ret ptr %3
}